; Function Attrs: nounwind uwtable
define dso_local void @loadingIncrProgress(i64 noundef %0) local_unnamed_addr #0 {
  %2 = load i64, ptr getelementptr inbounds nuw (i8, ptr @server, i64 2440), align 8, !tbaa !5
  %3 = add nsw i64 %2, %0
  store i64 %3, ptr getelementptr inbounds nuw (i8, ptr @server, i64 2440), align 8, !tbaa !5
  %4 = load i64, ptr getelementptr inbounds nuw (i8, ptr @server, i64 2640), align 8, !tbaa !229
  %5 = tail call i64 @zmalloc_used_memory() #23
  %6 = icmp ult i64 %4, %5
  br i1 %6, label %7, label %9

7:                                                ; preds = %1
  %8 = tail call i64 @zmalloc_used_memory() #23
  store i64 %8, ptr getelementptr inbounds nuw (i8, ptr @server, i64 2640), align 8, !tbaa !229
  br label %9

9:                                                ; preds = %7, %1
  ret void
}